******************************************************************************
                  TI ARM Linker PC v16.9.4                     
******************************************************************************
>> Linked Fri Aug 31 22:48:33 2018

OUTPUT FILE NAME:   <EM_1_TIVA_Git.out>
ENTRY POINT SYMBOL: "_c_int00"  address: 000027e5


MEMORY CONFIGURATION

         name            origin    length      used     unused   attr    fill
----------------------  --------  ---------  --------  --------  ----  --------
  FLASH                 00000000   00040000  000035ab  0003ca55  R  X
  SRAM                  20000000   00008000  00000947  000076b9  RW X


SEGMENT ALLOCATION MAP

run origin  load origin   length   init length attrs members
----------  ----------- ---------- ----------- ----- -------
00000000    00000000    000035b0   000035b0    r-x
  00000000    00000000    0000026c   0000026c    r-- .intvecs
  0000026c    0000026c    00002c12   00002c12    r-x .text
  00002e80    00002e80    000006bd   000006bd    r-- .const
  00003540    00003540    00000070   00000070    r-- .cinit
20000000    20000000    00000948   00000000    rw-
  20000000    20000000    0000026c   00000000    rw- .vtable
  2000026c    2000026c    0000040b   00000000    rw- .bss
  20000678    20000678    00000200   00000000    rw- .stack
  20000878    20000878    000000d0   00000000    rw- .data


SECTION ALLOCATION MAP

 output                                  attributes/
section   page    origin      length       input sections
--------  ----  ----------  ----------   ----------------
.intvecs   0    00000000    0000026c     
                  00000000    0000026c     tm4c123gh6pm_startup_ccs.obj (.intvecs)

.text      0    0000026c    00002c12     
                  0000026c    00000734     dl_mpu.obj (.text)
                  000009a0    00000640     hal_mpu_9250.obj (.text)
                  00000fe0    0000045c     dl_LCD.obj (.text)
                  0000143c    00000320     dl_RF_Module.obj (.text)
                  0000175c    00000244     hal_i2c.obj (.text)
                  000019a0    000001e8     hal_uart1.obj (.text)
                  00001b88    000001e4     hal_gpio.obj (.text)
                  00001d6c    00000132     driverlib.lib : gpio.obj (.text:GPIOPadConfigSet)
                  00001e9e    00000002     rtsv7M4_T_le_v4SPD16_eabi.lib : mpu_init.obj (.text)
                  00001ea0    00000130     hal_us.obj (.text)
                  00001fd0    00000110     driverlib.lib : sysctl.obj (.text:SysCtlClockGet)
                  000020e0    000000f4                   : sysctl.obj (.text:SysCtlClockSet)
                  000021d4    000000ec     hal_ssi1.obj (.text)
                  000022c0    000000b0     driverlib.lib : pwm.obj (.text:_PWMGenIntNumberGet)
                  00002370    000000a4                   : gpio.obj (.text:GPIOPadConfigGet)
                  00002414    000000a0     main.obj (.text)
                  000024b4    0000009c     rtsv7M4_T_le_v4SPD16_eabi.lib : memcpy_t2.obj (.text)
                  00002550    00000080     hal_pwm.obj (.text)
                  000025d0    0000007a     rtsv7M4_T_le_v4SPD16_eabi.lib : memset_t2.obj (.text)
                  0000264a    00000002                                   : startup.obj (.text)
                  0000264c    00000070                                   : autoinit.obj (.text)
                  000026bc    00000068     driverlib.lib : interrupt.obj (.text:IntEnable)
                  00002724    00000068     rtsv7M4_T_le_v4SPD16_eabi.lib : copy_decompress_lzss.obj (.text:decompress:lzss)
                  0000278c    00000056     driverlib.lib : gpio.obj (.text:GPIOIntTypeSet)
                  000027e2    00000002     --HOLE-- [fill = 0]
                  000027e4    00000054     rtsv7M4_T_le_v4SPD16_eabi.lib : boot.obj (.text)
                  00002838    00000054                                   : exit.obj (.text)
                  0000288c    00000050     driverlib.lib : sysctl.obj (.text:SysCtlPeripheralReset)
                  000028dc    0000004c                   : i2c.obj (.text:I2CMasterInitExpClk)
                  00002928    0000004c     rtsv7M4_T_le_v4SPD16_eabi.lib : cpy_tbl.obj (.text)
                  00002974    00000048     driverlib.lib : gpio.obj (.text:GPIOPinConfigure)
                  000029bc    00000046                   : uart.obj (.text:UARTConfigSetExpClk)
                  00002a02    00000002     --HOLE-- [fill = 0]
                  00002a04    00000044                   : gpio.obj (.text:_GPIOIntNumberGet)
                  00002a48    00000040                   : uart.obj (.text:_UARTIntNumberGet)
                  00002a88    0000003c                   : ssi.obj (.text:SSIConfigSetExpClk)
                  00002ac4    00000038                   : sysctl.obj (.text:SysCtlPeripheralReady)
                  00002afc    00000034                   : interrupt.obj (.text:IntRegister)
                  00002b30    00000034                   : sysctl.obj (.text:SysCtlPeripheralEnable)
                  00002b64    0000002a                   : gpio.obj (.text:GPIODirModeSet)
                  00002b8e    00000022                   : pwm.obj (.text:PWMGenConfigure)
                  00002bb0    00000020                   : uart.obj (.text:UARTDisable)
                  00002bd0    0000001e                   : pwm.obj (.text:PWMPulseWidthSet)
                  00002bee    0000001c     hal_init.obj (.text)
                  00002c0a    00000018     driverlib.lib : gpio.obj (.text:GPIOIntRegister)
                  00002c22    00000018                   : gpio.obj (.text:GPIOPinTypeGPIOOutput)
                  00002c3a    00000018                   : pwm.obj (.text:PWMGenIntRegister)
                  00002c52    00000018                   : uart.obj (.text:UARTIntRegister)
                  00002c6a    00000002     --HOLE-- [fill = 0]
                  00002c6c    00000018     rtsv7M4_T_le_v4SPD16_eabi.lib : args_main.obj (.text)
                  00002c84    00000014     driverlib.lib : sysctl.obj (.text:SysCtlPWMClockSet)
                  00002c98    00000014                   : uart.obj (.text:UARTEnable)
                  00002cac    00000014     rtsv7M4_T_le_v4SPD16_eabi.lib : _lock.obj (.text)
                  00002cc0    00000012     driverlib.lib : gpio.obj (.text:GPIOPinTypeGPIOInput)
                  00002cd2    00000012                   : gpio.obj (.text:GPIOPinTypeI2C)
                  00002ce4    00000012                   : gpio.obj (.text:GPIOPinTypeI2CSCL)
                  00002cf6    00000012                   : gpio.obj (.text:GPIOPinTypePWM)
                  00002d08    00000012                   : gpio.obj (.text:GPIOPinTypeSSI)
                  00002d1a    00000012                   : gpio.obj (.text:GPIOPinTypeUART)
                  00002d2c    00000012                   : pwm.obj (.text:PWMOutputState)
                  00002d3e    00000010                   : pwm.obj (.text:PWMGenPeriodSet)
                  00002d4e    00000002     --HOLE-- [fill = 0]
                  00002d50    00000010     hal_usc.obj (.text)
                  00002d60    0000000e     driverlib.lib : gpio.obj (.text:GPIOIntStatus)
                  00002d6e    0000000e                   : uart.obj (.text:UARTCharPutNonBlocking)
                  00002d7c    0000000e                   : uart.obj (.text:UARTCharsAvail)
                  00002d8a    0000000e     rtsv7M4_T_le_v4SPD16_eabi.lib : copy_decompress_none.obj (.text:decompress:none)
                  00002d98    0000000c     driverlib.lib : gpio.obj (.text:GPIOIntEnable)
                  00002da4    0000000c                   : pwm.obj (.text:PWMGenDisable)
                  00002db0    0000000c                   : pwm.obj (.text:PWMGenEnable)
                  00002dbc    0000000c                   : pwm.obj (.text:PWMGenIntStatus)
                  00002dc8    0000000c     rtsv7M4_T_le_v4SPD16_eabi.lib : copy_zero_init.obj (.text:decompress:ZI)
                  00002dd4    0000000c     tm4c123gh6pm_startup_ccs.obj (.text)
                  00002de0    0000000a     driverlib.lib : i2c.obj (.text:I2CMasterEnable)
                  00002dea    0000000a                   : pwm.obj (.text:PWMGenIntTrigEnable)
                  00002df4    0000000a                   : ssi.obj (.text:SSIDataPut)
                  00002dfe    0000000a                   : ssi.obj (.text:SSIEnable)
                  00002e08    0000000a                   : uart.obj (.text:UARTCharGet)
                  00002e12    0000000a                   : uart.obj (.text:UARTIntStatus)
                  00002e1c    00000008                   : i2c.obj (.text:I2CMasterBusy)
                  00002e24    00000008                   : i2c.obj (.text:I2CMasterSlaveAddrSet)
                  00002e2c    00000008                   : pwm.obj (.text:PWMIntEnable)
                  00002e34    00000008                   : ssi.obj (.text:SSIBusy)
                  00002e3c    00000008                   : uart.obj (.text:UARTBusy)
                  00002e44    00000008                   : uart.obj (.text:UARTIntEnable)
                  00002e4c    00000006                   : gpio.obj (.text:GPIOIntClear)
                  00002e52    00000006                   : gpio.obj (.text:GPIOPinWrite)
                  00002e58    00000006                   : pwm.obj (.text:PWMGenIntClear)
                  00002e5e    00000006                   : sysctl.obj (.text:SysCtlDelay)
                  00002e64    00000006                   : uart.obj (.text:UARTFIFOLevelSet)
                  00002e6a    00000004                   : i2c.obj (.text:I2CMasterControl)
                  00002e6e    00000004                   : i2c.obj (.text:I2CMasterDataGet)
                  00002e72    00000004                   : i2c.obj (.text:I2CMasterDataPut)
                  00002e76    00000004                   : uart.obj (.text:UARTIntClear)
                  00002e7a    00000004     rtsv7M4_T_le_v4SPD16_eabi.lib : pre_init.obj (.text)

.const     0    00002e80    000006bd     
                  00002e80    00000300     dl_LCD.obj (.const:font_table)
                  00003180    000000d8     driverlib.lib : gpio.obj (.const:g_ppui32GPIOIntMapSnowflake)
                  00003258    000000c0                   : gpio.obj (.const:g_ppui32GPIOIntMapBlizzard)
                  00003318    00000090                   : gpio.obj (.const:g_pui32GPIOBaseAddrs)
                  000033a8    00000070                   : interrupt.obj (.const)
                  00003418    0000006c                   : sysctl.obj (.const:g_pui32Xtals)
                  00003484    00000040                   : uart.obj (.const:g_ppui32UARTIntMap)
                  000034c4    00000040                   : uart.obj (.const:g_ppui32UARTIntMapSnowflake)
                  00003504    0000000c     dl_mpu.obj (.const:$P$T0$1)
                  00003510    0000000c     dl_mpu.obj (.const:$P$T1$2)
                  0000351c    0000000c     dl_mpu.obj (.const:$P$T2$3)
                  00003528    00000004     dl_RF_Module.obj (.const:.string:$P$T2$3)
                  0000352c    00000003     dl_RF_Module.obj (.const:.string:$P$T0$1)
                  0000352f    00000003     dl_RF_Module.obj (.const:.string:$P$T1$2)
                  00003532    00000003     dl_RF_Module.obj (.const:.string:$P$T3$4)
                  00003535    00000002     hal_mpu_9250.obj (.const:.string:$P$T0$1)
                  00003537    00000002     hal_mpu_9250.obj (.const:.string:$P$T1$2)
                  00003539    00000002     hal_mpu_9250.obj (.const:.string:$P$T2$3)
                  0000353b    00000002     hal_mpu_9250.obj (.const:.string:$P$T3$4)

.cinit     0    00003540    00000070     
                  00003540    0000003b     (.cinit..data.load) [load image, compression = lzss]
                  0000357b    00000001     --HOLE-- [fill = 0]
                  0000357c    0000000c     (__TI_handler_table)
                  00003588    00000008     (.cinit..bss.load) [load image, compression = zero_init]
                  00003590    00000008     (.cinit..vtable.load) [load image, compression = zero_init]
                  00003598    00000018     (__TI_cinit_table)

.init_array 
*          0    00000000    00000000     UNINITIALIZED

.vtable    0    20000000    0000026c     UNINITIALIZED
                  20000000    0000026c     driverlib.lib : interrupt.obj (.vtable)

.bss       0    2000026c    0000040b     UNINITIALIZED
                  2000026c    00000205     (.common:LCD_cmd_)
                  20000471    00000205     (.common:uart_status_)
                  20000676    00000001     (.common:switch_backlight_)

.stack     0    20000678    00000200     UNINITIALIZED
                  20000678    00000200     --HOLE--

.data      0    20000878    000000d0     UNINITIALIZED
                  20000878    00000080     dl_LCD.obj (.data:lcdDataArray_)
                  200008f8    0000000c     rtsv7M4_T_le_v4SPD16_eabi.lib : exit.obj (.data:$O1$$)
                  20000904    0000000c     hal_mpu_9250.obj (.data)
                  20000910    0000000c     hal_us.obj (.data)
                  2000091c    00000009     dl_LCD.obj (.data:lcdInitCmd_)
                  20000925    00000003     dl_LCD.obj (.data:lcdPositionArray_)
                  20000928    00000008     rtsv7M4_T_le_v4SPD16_eabi.lib : _lock.obj (.data:$O1$$)
                  20000930    00000006     hal_mpu_9250.obj (.data:Accel_reg_addr)
                  20000936    00000006     hal_mpu_9250.obj (.data:gyro_reg_addr)
                  2000093c    00000006     hal_mpu_9250.obj (.data:magn_reg_addr)
                  20000942    00000001     hal_gpio.obj (.data)
                  20000943    00000001     hal_uart1.obj (.data)
                  20000944    00000004     rtsv7M4_T_le_v4SPD16_eabi.lib : stkdepth_vars.obj (.data)

MODULE SUMMARY

       Module                         code    ro data   rw data
       ------                         ----    -------   -------
    .\
       tm4c123gh6pm_startup_ccs.obj   12      620       0      
       main.obj                       160     0         0      
    +--+------------------------------+-------+---------+---------+
       Total:                         172     620       0      
                                                               
    .\F_DL\
       dl_LCD.obj                     1116    768       657    
       dl_mpu.obj                     1844    36        0      
       dl_RF_Module.obj               800     13        0      
    +--+------------------------------+-------+---------+---------+
       Total:                         3760    817       657    
                                                               
    .\F_HAL\
       hal_mpu_9250.obj               1600    8         30     
       hal_uart1.obj                  488     0         519    
       hal_i2c.obj                    580     0         0      
       hal_gpio.obj                   484     0         1      
       hal_us.obj                     304     0         12     
       hal_ssi1.obj                   236     0         0      
       hal_pwm.obj                    128     0         0      
       hal_init.obj                   28      0         0      
       hal_usc.obj                    16      0         0      
    +--+------------------------------+-------+---------+---------+
       Total:                         3864    8         562    
                                                               
    C:/ti/TivaWare_C_Series-2.1.4.178/driverlib/ccs/Debug/driverlib.lib
       gpio.obj                       932     552       0      
       interrupt.obj                  156     112       620    
       sysctl.obj                     730     108       0      
       uart.obj                       284     128       0      
       pwm.obj                        358     0         0      
       i2c.obj                        114     0         0      
       ssi.obj                        88      0         0      
    +--+------------------------------+-------+---------+---------+
       Total:                         2662    900       620    
                                                               
    C:\ti\ccsv7\tools\compiler\ti-cgt-arm_16.9.4.LTS\lib\rtsv7M4_T_le_v4SPD16_eabi.lib
       memcpy_t2.obj                  156     0         0      
       memset_t2.obj                  122     0         0      
       autoinit.obj                   112     0         0      
       copy_decompress_lzss.obj       104     0         0      
       exit.obj                       84      0         12     
       boot.obj                       84      0         0      
       cpy_tbl.obj                    76      0         0      
       _lock.obj                      20      0         8      
       args_main.obj                  24      0         0      
       copy_decompress_none.obj       14      0         0      
       copy_zero_init.obj             12      0         0      
       pre_init.obj                   4       0         0      
       stkdepth_vars.obj              0       0         4      
       mpu_init.obj                   2       0         0      
       startup.obj                    2       0         0      
    +--+------------------------------+-------+---------+---------+
       Total:                         816     0         24     
                                                               
       Stack:                         0       0         512    
       Linker Generated:              0       111       0      
    +--+------------------------------+-------+---------+---------+
       Grand Total:                   11274   2456      2375   


LINKER GENERATED COPY TABLES

__TI_cinit_table @ 00003598 records: 3, size/record: 8, table size: 24
	.data: load addr=00003540, load size=0000003b bytes, run addr=20000878, run size=000000d0 bytes, compression=lzss
	.bss: load addr=00003588, load size=00000008 bytes, run addr=2000026c, run size=0000040b bytes, compression=zero_init
	.vtable: load addr=00003590, load size=00000008 bytes, run addr=20000000, run size=0000026c bytes, compression=zero_init


LINKER GENERATED HANDLER TABLE

__TI_handler_table @ 0000357c records: 3, size/record: 4, table size: 12
	index: 0, handler: __TI_zero_init
	index: 1, handler: __TI_decompress_lzss
	index: 2, handler: __TI_decompress_none


GLOBAL SYMBOLS: SORTED ALPHABETICALLY BY Name 

address   name                           
-------   ----                           
20000930  Accel_reg_addr                 
00002839  C$$EXIT                        
00002b65  GPIODirModeSet                 
00002e4d  GPIOIntClear                   
00002d99  GPIOIntEnable                  
00002c0b  GPIOIntRegister                
00002d61  GPIOIntStatus                  
0000278d  GPIOIntTypeSet                 
00002371  GPIOPadConfigGet               
00001d6d  GPIOPadConfigSet               
00002975  GPIOPinConfigure               
00002cc1  GPIOPinTypeGPIOInput           
00002c23  GPIOPinTypeGPIOOutput          
00002cd3  GPIOPinTypeI2C                 
00002ce5  GPIOPinTypeI2CSCL              
00002cf7  GPIOPinTypePWM                 
00002d09  GPIOPinTypeSSI                 
00002d1b  GPIOPinTypeUART                
00002e53  GPIOPinWrite                   
00002e1d  I2CMasterBusy                  
00002e6b  I2CMasterControl               
00002e6f  I2CMasterDataGet               
00002e73  I2CMasterDataPut               
00002de1  I2CMasterEnable                
000028dd  I2CMasterInitExpClk            
00002e25  I2CMasterSlaveAddrSet          
000018d1  I2CReceiveBurst                
00001879  I2CReceiveSingle               
000017db  I2cSendBurst                   
000017a7  I2cSendByte                    
000026bd  IntEnable                      
00002afd  IntRegister                    
2000026c  LCD_cmd_                       
00001f5d  PWM0_Int_handler               
00002b8f  PWMGenConfigure                
00002da5  PWMGenDisable                  
00002db1  PWMGenEnable                   
00002e59  PWMGenIntClear                 
00002c3b  PWMGenIntRegister              
00002dbd  PWMGenIntStatus                
00002deb  PWMGenIntTrigEnable            
00002d3f  PWMGenPeriodSet                
00002e2d  PWMIntEnable                   
00002d2d  PWMOutputState                 
00002bd1  PWMPulseWidthSet               
00002dd5  ResetISR                       
UNDEFED   SHT$$INIT_ARRAY$$Base          
UNDEFED   SHT$$INIT_ARRAY$$Limit         
00002e35  SSIBusy                        
00002a89  SSIConfigSetExpClk             
00002df5  SSIDataPut                     
00002dff  SSIEnable                      
00001fd1  SysCtlClockGet                 
000020e1  SysCtlClockSet                 
00002e5f  SysCtlDelay                    
00002c85  SysCtlPWMClockSet              
00002b31  SysCtlPeripheralEnable         
00002ac5  SysCtlPeripheralReady          
0000288d  SysCtlPeripheralReset          
00002e3d  UARTBusy                       
00002e09  UARTCharGet                    
00002d6f  UARTCharPutNonBlocking         
00002d7d  UARTCharsAvail                 
000029bd  UARTConfigSetExpClk            
00002bb1  UARTDisable                    
00002c99  UARTEnable                     
00002e65  UARTFIFOLevelSet               
00002e77  UARTIntClear                   
00002e45  UARTIntEnable                  
00002c53  UARTIntRegister                
00002e13  UARTIntStatus                  
20000878  __STACK_END                    
00000200  __STACK_SIZE                   
20000878  __STACK_TOP                    
00003598  __TI_CINIT_Base                
000035b0  __TI_CINIT_Limit               
0000357c  __TI_Handler_Table_Base        
00003588  __TI_Handler_Table_Limit       
0000264d  __TI_auto_init                 
200008f8  __TI_cleanup_ptr               
00002725  __TI_decompress_lzss           
00002d8b  __TI_decompress_none           
200008fc  __TI_dtors_ptr                 
20000900  __TI_enable_exit_profile_output
ffffffff  __TI_pprof_out_hndl            
ffffffff  __TI_prof_data_size            
ffffffff  __TI_prof_data_start           
00000000  __TI_static_base__             
00002dc9  __TI_zero_init                 
000025d1  __aeabi_memclr                 
000025d1  __aeabi_memclr4                
000025d1  __aeabi_memclr8                
000024b5  __aeabi_memcpy                 
000024b5  __aeabi_memcpy4                
000024b5  __aeabi_memcpy8                
000025d3  __aeabi_memset                 
000025d3  __aeabi_memset4                
000025d3  __aeabi_memset8                
ffffffff  __binit__                      
ffffffff  __c_args__                     
00001e9f  __mpu_init                     
20000678  __stack                        
00002c6d  _args_main                     
000027e5  _c_int00                       
20000928  _lock                          
00002cbb  _nop                           
00002cb3  _register_lock                 
00002cad  _register_unlock               
0000264b  _system_post_cinit             
00002e7b  _system_pre_init               
2000092c  _unlock                        
0000283d  abort                          
20000904  asa_x_                         
20000908  asa_y_                         
2000090c  asa_z_                         
ffffffff  binit                          
20000910  burst_finished_                
00001ba5  configPort_A                   
00001bd9  configPort_B                   
00001c55  configPort_C                   
00001c69  configPort_D                   
00001ca1  configPort_E                   
00001cbd  configPort_F                   
00002929  copy_in                        
000015a3  dlGetDataPayloadRF             
0000147b  dlGetSettingInfoRF             
0000108d  dlLcdClear                     
0000104b  dlLcdInit                      
000010ff  dlLcdSetPosition               
00000fe1  dlLcdWriteCommand              
0000113f  dlLcdWriteData                 
000011b1  dlLcdWriteText                 
00001301  dlLcdWriteUInt                 
00001515  dlSendDataRF                   
00000719  dlSendSensorData               
00001565  dlSetCarAddress                
0000143d  dlSetChannelRF                 
0000026d  dlShowAccData                  
000003df  dlShowGyrData                  
00000571  dlShowMagData                  
00002845  exit                           
00001d07  extIntFHandler                 
00002e80  font_table                     
20000000  g_pfnRAMVectors                
00000000  g_pfnVectors                   
20000936  gyro_reg_addr                  
000009f7  halAccInit                     
00000b6b  halCtlRead_Mag                 
00000af1  halCtlWrite_Mag                
00000b79  halGetAccData                  
00000c5d  halGetGyrData                  
00000ec5  halGetMagASA                   
00000d41  halGetMagData                  
00000e41  halGetRawMagData               
00001a87  halGetUart1Data                
00001b89  halGpioInit                    
00000a39  halGyrInit                     
0000175d  halI2cInit                     
00001f4f  halIsBurstFinished             
00000a7b  halMagInit                     
000009a1  halMpuInit                     
000009cb  halMpuReset                    
00002551  halPWMInit                     
00001f55  halResetBurstIndicator         
00001a19  halSendUart1Data               
000021d5  halSsi1Int                     
00001f37  halStartBurstModeUS            
00000ad5  halStatus1_Mag                 
00000ae3  halStatus2_Mag                 
00002d51  halSysClkInit                  
000019a1  halUart1Init                   
00001ea1  halUsInit                      
0000224d  halUsciB1Transmit              
000009e9  halWhoAmI                      
00000ac7  halWhoAmI_Mag                  
00002bef  hal_init                       
20000942  is_switch_active               
20000878  lcdDataArray_                  
2000091c  lcdInitCmd_                    
20000925  lcdPositionArray_              
2000093c  magn_reg_addr                  
00002415  main                           
20000944  main_func_sp                   
000024b5  memcpy                         
000025d9  memset                         
20000914  pwm_burst_cnt_                 
20000676  switch_backlight_              
20000471  uart_status_                   


GLOBAL SYMBOLS: SORTED BY Symbol Address 

address   name                           
-------   ----                           
00000000  __TI_static_base__             
00000000  g_pfnVectors                   
00000200  __STACK_SIZE                   
0000026d  dlShowAccData                  
000003df  dlShowGyrData                  
00000571  dlShowMagData                  
00000719  dlSendSensorData               
000009a1  halMpuInit                     
000009cb  halMpuReset                    
000009e9  halWhoAmI                      
000009f7  halAccInit                     
00000a39  halGyrInit                     
00000a7b  halMagInit                     
00000ac7  halWhoAmI_Mag                  
00000ad5  halStatus1_Mag                 
00000ae3  halStatus2_Mag                 
00000af1  halCtlWrite_Mag                
00000b6b  halCtlRead_Mag                 
00000b79  halGetAccData                  
00000c5d  halGetGyrData                  
00000d41  halGetMagData                  
00000e41  halGetRawMagData               
00000ec5  halGetMagASA                   
00000fe1  dlLcdWriteCommand              
0000104b  dlLcdInit                      
0000108d  dlLcdClear                     
000010ff  dlLcdSetPosition               
0000113f  dlLcdWriteData                 
000011b1  dlLcdWriteText                 
00001301  dlLcdWriteUInt                 
0000143d  dlSetChannelRF                 
0000147b  dlGetSettingInfoRF             
00001515  dlSendDataRF                   
00001565  dlSetCarAddress                
000015a3  dlGetDataPayloadRF             
0000175d  halI2cInit                     
000017a7  I2cSendByte                    
000017db  I2cSendBurst                   
00001879  I2CReceiveSingle               
000018d1  I2CReceiveBurst                
000019a1  halUart1Init                   
00001a19  halSendUart1Data               
00001a87  halGetUart1Data                
00001b89  halGpioInit                    
00001ba5  configPort_A                   
00001bd9  configPort_B                   
00001c55  configPort_C                   
00001c69  configPort_D                   
00001ca1  configPort_E                   
00001cbd  configPort_F                   
00001d07  extIntFHandler                 
00001d6d  GPIOPadConfigSet               
00001e9f  __mpu_init                     
00001ea1  halUsInit                      
00001f37  halStartBurstModeUS            
00001f4f  halIsBurstFinished             
00001f55  halResetBurstIndicator         
00001f5d  PWM0_Int_handler               
00001fd1  SysCtlClockGet                 
000020e1  SysCtlClockSet                 
000021d5  halSsi1Int                     
0000224d  halUsciB1Transmit              
00002371  GPIOPadConfigGet               
00002415  main                           
000024b5  __aeabi_memcpy                 
000024b5  __aeabi_memcpy4                
000024b5  __aeabi_memcpy8                
000024b5  memcpy                         
00002551  halPWMInit                     
000025d1  __aeabi_memclr                 
000025d1  __aeabi_memclr4                
000025d1  __aeabi_memclr8                
000025d3  __aeabi_memset                 
000025d3  __aeabi_memset4                
000025d3  __aeabi_memset8                
000025d9  memset                         
0000264b  _system_post_cinit             
0000264d  __TI_auto_init                 
000026bd  IntEnable                      
00002725  __TI_decompress_lzss           
0000278d  GPIOIntTypeSet                 
000027e5  _c_int00                       
00002839  C$$EXIT                        
0000283d  abort                          
00002845  exit                           
0000288d  SysCtlPeripheralReset          
000028dd  I2CMasterInitExpClk            
00002929  copy_in                        
00002975  GPIOPinConfigure               
000029bd  UARTConfigSetExpClk            
00002a89  SSIConfigSetExpClk             
00002ac5  SysCtlPeripheralReady          
00002afd  IntRegister                    
00002b31  SysCtlPeripheralEnable         
00002b65  GPIODirModeSet                 
00002b8f  PWMGenConfigure                
00002bb1  UARTDisable                    
00002bd1  PWMPulseWidthSet               
00002bef  hal_init                       
00002c0b  GPIOIntRegister                
00002c23  GPIOPinTypeGPIOOutput          
00002c3b  PWMGenIntRegister              
00002c53  UARTIntRegister                
00002c6d  _args_main                     
00002c85  SysCtlPWMClockSet              
00002c99  UARTEnable                     
00002cad  _register_unlock               
00002cb3  _register_lock                 
00002cbb  _nop                           
00002cc1  GPIOPinTypeGPIOInput           
00002cd3  GPIOPinTypeI2C                 
00002ce5  GPIOPinTypeI2CSCL              
00002cf7  GPIOPinTypePWM                 
00002d09  GPIOPinTypeSSI                 
00002d1b  GPIOPinTypeUART                
00002d2d  PWMOutputState                 
00002d3f  PWMGenPeriodSet                
00002d51  halSysClkInit                  
00002d61  GPIOIntStatus                  
00002d6f  UARTCharPutNonBlocking         
00002d7d  UARTCharsAvail                 
00002d8b  __TI_decompress_none           
00002d99  GPIOIntEnable                  
00002da5  PWMGenDisable                  
00002db1  PWMGenEnable                   
00002dbd  PWMGenIntStatus                
00002dc9  __TI_zero_init                 
00002dd5  ResetISR                       
00002de1  I2CMasterEnable                
00002deb  PWMGenIntTrigEnable            
00002df5  SSIDataPut                     
00002dff  SSIEnable                      
00002e09  UARTCharGet                    
00002e13  UARTIntStatus                  
00002e1d  I2CMasterBusy                  
00002e25  I2CMasterSlaveAddrSet          
00002e2d  PWMIntEnable                   
00002e35  SSIBusy                        
00002e3d  UARTBusy                       
00002e45  UARTIntEnable                  
00002e4d  GPIOIntClear                   
00002e53  GPIOPinWrite                   
00002e59  PWMGenIntClear                 
00002e5f  SysCtlDelay                    
00002e65  UARTFIFOLevelSet               
00002e6b  I2CMasterControl               
00002e6f  I2CMasterDataGet               
00002e73  I2CMasterDataPut               
00002e77  UARTIntClear                   
00002e7b  _system_pre_init               
00002e80  font_table                     
0000357c  __TI_Handler_Table_Base        
00003588  __TI_Handler_Table_Limit       
00003598  __TI_CINIT_Base                
000035b0  __TI_CINIT_Limit               
20000000  g_pfnRAMVectors                
2000026c  LCD_cmd_                       
20000471  uart_status_                   
20000676  switch_backlight_              
20000678  __stack                        
20000878  __STACK_END                    
20000878  __STACK_TOP                    
20000878  lcdDataArray_                  
200008f8  __TI_cleanup_ptr               
200008fc  __TI_dtors_ptr                 
20000900  __TI_enable_exit_profile_output
20000904  asa_x_                         
20000908  asa_y_                         
2000090c  asa_z_                         
20000910  burst_finished_                
20000914  pwm_burst_cnt_                 
2000091c  lcdInitCmd_                    
20000925  lcdPositionArray_              
20000928  _lock                          
2000092c  _unlock                        
20000930  Accel_reg_addr                 
20000936  gyro_reg_addr                  
2000093c  magn_reg_addr                  
20000942  is_switch_active               
20000944  main_func_sp                   
ffffffff  __TI_pprof_out_hndl            
ffffffff  __TI_prof_data_size            
ffffffff  __TI_prof_data_start           
ffffffff  __binit__                      
ffffffff  __c_args__                     
ffffffff  binit                          
UNDEFED   SHT$$INIT_ARRAY$$Base          
UNDEFED   SHT$$INIT_ARRAY$$Limit         

[188 symbols]
